target datalayout = "e-m:e-p270:32:32-p271:32:32-p272:64:64-i64:64-i128:128-f80:128-n8:16:32:64-S128"
target triple = "x86_64-unknown-linux-gnu"

%struct._GQueue = type { ptr, ptr, i32 }
%struct.Connection = type { %struct._GQueue, %struct._GQueue, i8, i8, i32, i32, i32, i32, i32, i32 }
%struct.timeval = type { i64, i64 }
%struct._GList = type { ptr, ptr, ptr }

@trace_events_enabled_count = external global i32, align 4
@message_with_timestamp = external global i8, align 1
@qemu_loglevel = external global i32, align 4
@_TRACE_COLO_COMPARE_MAIN_DSTATE = external global i16, align 2
@.str.29 = private unnamed_addr constant [37 x i8] c"%d@%zu.%06zu:colo_compare_main : %s\0A\00", align 1
@.str.30 = private unnamed_addr constant [24 x i8] c"colo_compare_main : %s\0A\00", align 1
@.str.42 = private unnamed_addr constant [17 x i8] c"packet different\00", align 1

; Function Attrs: nounwind sspstrong uwtable
define internal zeroext i1 @qemu_loglevel_mask(i32 noundef %mask) #0 {
entry:
  %mask.addr = alloca i32, align 4
  store i32 %mask, ptr %mask.addr, align 4
  %0 = load i32, ptr @qemu_loglevel, align 4
  %1 = load i32, ptr %mask.addr, align 4
  %and = and i32 %0, %1
  %cmp = icmp ne i32 %and, 0
  ret i1 %cmp
}

; Function Attrs: nounwind sspstrong uwtable
define internal void @_nocheck__trace_colo_compare_main(ptr noundef %chr) #0 {
entry:
  %chr.addr = alloca ptr, align 8
  %_now = alloca %struct.timeval, align 8
  store ptr %chr, ptr %chr.addr, align 8
  %0 = load i32, ptr @trace_events_enabled_count, align 4
  %tobool = icmp ne i32 %0, 0
  %lnot = xor i1 %tobool, true
  %lnot1 = xor i1 %lnot, true
  %lnot.ext = zext i1 %lnot1 to i32
  %conv = sext i32 %lnot.ext to i64
  %tobool2 = icmp ne i64 %conv, 0
  br i1 %tobool2, label %land.lhs.true, label %if.end11

land.lhs.true:                                    ; preds = %entry
  %1 = load i16, ptr @_TRACE_COLO_COMPARE_MAIN_DSTATE, align 2
  %conv3 = zext i16 %1 to i32
  %tobool4 = icmp ne i32 %conv3, 0
  br i1 %tobool4, label %land.lhs.true5, label %if.end11

land.lhs.true5:                                   ; preds = %land.lhs.true
  %call = call zeroext i1 @qemu_loglevel_mask(i32 noundef 32768)
  br i1 %call, label %if.then, label %if.end11

if.then:                                          ; preds = %land.lhs.true5
  %2 = load i8, ptr @message_with_timestamp, align 1
  %tobool7 = trunc i8 %2 to i1
  br i1 %tobool7, label %if.then8, label %if.else

if.then8:                                         ; preds = %if.then
  %call9 = call i32 @gettimeofday(ptr noundef %_now, ptr noundef null) #15
  %call10 = call i32 @qemu_get_thread_id()
  %tv_sec = getelementptr inbounds %struct.timeval, ptr %_now, i32 0, i32 0
  %3 = load i64, ptr %tv_sec, align 8
  %tv_usec = getelementptr inbounds %struct.timeval, ptr %_now, i32 0, i32 1
  %4 = load i64, ptr %tv_usec, align 8
  %5 = load ptr, ptr %chr.addr, align 8
  call void (ptr, ...) @qemu_log(ptr noundef @.str.29, i32 noundef %call10, i64 noundef %3, i64 noundef %4, ptr noundef %5)
  br label %if.end

if.else:                                          ; preds = %if.then
  %6 = load ptr, ptr %chr.addr, align 8
  call void (ptr, ...) @qemu_log(ptr noundef @.str.30, ptr noundef %6)
  br label %if.end

if.end:                                           ; preds = %if.else, %if.then8
  br label %if.end11

if.end11:                                         ; preds = %if.end, %land.lhs.true5, %land.lhs.true, %entry
  ret void
}

; Function Attrs: nounwind sspstrong uwtable
define internal void @trace_colo_compare_main(ptr noundef %chr) #0 {
entry:
  %chr.addr = alloca ptr, align 8
  store ptr %chr, ptr %chr.addr, align 8
  %0 = load ptr, ptr %chr.addr, align 8
  call void @_nocheck__trace_colo_compare_main(ptr noundef %0)
  ret void
}

; Function Attrs: nounwind sspstrong uwtable
define internal void @colo_compare_packet(ptr noundef %s, ptr noundef %conn, ptr noundef %HandlePacket) #0 {
entry:
  %s.addr = alloca ptr, align 8
  %conn.addr = alloca ptr, align 8
  %HandlePacket.addr = alloca ptr, align 8
  %pkt = alloca ptr, align 8
  %result = alloca ptr, align 8
  store ptr %s, ptr %s.addr, align 8
  store ptr %conn, ptr %conn.addr, align 8
  store ptr %HandlePacket, ptr %HandlePacket.addr, align 8
  store ptr null, ptr %pkt, align 8
  store ptr null, ptr %result, align 8
  br label %while.cond

while.cond:                                       ; preds = %if.end, %entry
  %0 = load ptr, ptr %conn.addr, align 8
  %primary_list = getelementptr inbounds %struct.Connection, ptr %0, i32 0, i32 0
  %call = call i32 @g_queue_is_empty(ptr noundef %primary_list)
  %tobool = icmp ne i32 %call, 0
  br i1 %tobool, label %land.end, label %land.rhs

land.rhs:                                         ; preds = %while.cond
  %1 = load ptr, ptr %conn.addr, align 8
  %secondary_list = getelementptr inbounds %struct.Connection, ptr %1, i32 0, i32 1
  %call1 = call i32 @g_queue_is_empty(ptr noundef %secondary_list)
  %tobool2 = icmp ne i32 %call1, 0
  %lnot = xor i1 %tobool2, true
  br label %land.end

land.end:                                         ; preds = %land.rhs, %while.cond
  %2 = phi i1 [ false, %while.cond ], [ %lnot, %land.rhs ]
  br i1 %2, label %while.body, label %while.end

while.body:                                       ; preds = %land.end
  %3 = load ptr, ptr %conn.addr, align 8
  %primary_list3 = getelementptr inbounds %struct.Connection, ptr %3, i32 0, i32 0
  %call4 = call ptr @g_queue_pop_tail(ptr noundef %primary_list3)
  store ptr %call4, ptr %pkt, align 8
  %4 = load ptr, ptr %conn.addr, align 8
  %secondary_list5 = getelementptr inbounds %struct.Connection, ptr %4, i32 0, i32 1
  %5 = load ptr, ptr %pkt, align 8
  %6 = load ptr, ptr %HandlePacket.addr, align 8
  %call6 = call ptr @g_queue_find_custom(ptr noundef %secondary_list5, ptr noundef %5, ptr noundef %6)
  store ptr %call6, ptr %result, align 8
  %7 = load ptr, ptr %result, align 8
  %tobool7 = icmp ne ptr %7, null
  br i1 %tobool7, label %if.then, label %if.else

if.then:                                          ; preds = %while.body
  %8 = load ptr, ptr %s.addr, align 8
  %9 = load ptr, ptr %pkt, align 8
  call void @colo_release_primary_pkt(ptr noundef %8, ptr noundef %9)
  %10 = load ptr, ptr %result, align 8
  %data = getelementptr inbounds %struct._GList, ptr %10, i32 0, i32 0
  %11 = load ptr, ptr %data, align 8
  call void @packet_destroy(ptr noundef %11, ptr noundef null)
  %12 = load ptr, ptr %conn.addr, align 8
  %secondary_list8 = getelementptr inbounds %struct.Connection, ptr %12, i32 0, i32 1
  %13 = load ptr, ptr %result, align 8
  call void @g_queue_delete_link(ptr noundef %secondary_list8, ptr noundef %13)
  br label %if.end

if.else:                                          ; preds = %while.body
  call void @trace_colo_compare_main(ptr noundef @.str.42)
  %14 = load ptr, ptr %conn.addr, align 8
  %primary_list9 = getelementptr inbounds %struct.Connection, ptr %14, i32 0, i32 0
  %15 = load ptr, ptr %pkt, align 8
  call void @g_queue_push_tail(ptr noundef %primary_list9, ptr noundef %15)
  %16 = load ptr, ptr %s.addr, align 8
  call void @colo_compare_inconsistency_notify(ptr noundef %16)
  br label %while.end

if.end:                                           ; preds = %if.then
  br label %while.cond, !llvm.loop !20

while.end:                                        ; preds = %if.else, %land.end
  ret void
}