; Function Attrs: nounwind sspstrong uwtable
define internal fastcc void @colo_compare_packet(ptr noundef %s, ptr noundef %conn, ptr noundef %HandlePacket) unnamed_addr #0 {
entry:
  %_now.i.i = alloca %struct.timeval, align 8
  %call11 = tail call i32 @g_queue_is_empty(ptr noundef %conn) #16
  %tobool.not12 = icmp eq i32 %call11, 0
  br i1 %tobool.not12, label %land.rhs.lr.ph, label %while.end

land.rhs.lr.ph:                                   ; preds = %entry
  %secondary_list = getelementptr inbounds nuw i8, ptr %conn, i64 24
  br label %land.rhs

land.rhs:                                         ; preds = %land.rhs.lr.ph, %if.then
  %call1 = tail call i32 @g_queue_is_empty(ptr noundef nonnull %secondary_list) #16
  %tobool2.not = icmp eq i32 %call1, 0
  br i1 %tobool2.not, label %while.body, label %while.end

while.body:                                       ; preds = %land.rhs
  %call4 = tail call ptr @g_queue_pop_tail(ptr noundef nonnull %conn) #16
  %call6 = tail call ptr @g_queue_find_custom(ptr noundef nonnull %secondary_list, ptr noundef %call4, ptr noundef %HandlePacket) #16
  %tobool7.not = icmp eq ptr %call6, null
  br i1 %tobool7.not, label %if.else, label %if.then

if.then:                                          ; preds = %while.body
  tail call fastcc void @colo_release_primary_pkt(ptr noundef %s, ptr noundef %call4)
  %0 = load ptr, ptr %call6, align 8
  tail call void @packet_destroy(ptr noundef %0, ptr noundef null) #16
  tail call void @g_queue_delete_link(ptr noundef nonnull %secondary_list, ptr noundef nonnull %call6) #16
  %call = tail call i32 @g_queue_is_empty(ptr noundef nonnull %conn) #16
  %tobool.not = icmp eq i32 %call, 0
  br i1 %tobool.not, label %land.rhs, label %while.end, !llvm.loop !19

if.else:                                          ; preds = %while.body
  call void @llvm.lifetime.start.p0(i64 16, ptr nonnull %_now.i.i)
  %1 = load i32, ptr @trace_events_enabled_count, align 4
  %tobool.i.i = icmp ne i32 %1, 0
  %2 = load i16, ptr @_TRACE_COLO_COMPARE_MAIN_DSTATE, align 2
  %tobool4.i.i = icmp ne i16 %2, 0
  %or.cond.i.i = select i1 %tobool.i.i, i1 %tobool4.i.i, i1 false
  br i1 %or.cond.i.i, label %land.lhs.true5.i.i, label %trace_colo_compare_main.exit

land.lhs.true5.i.i:                               ; preds = %if.else
  %3 = load i32, ptr @qemu_loglevel, align 4
  %and.i.i.i = and i32 %3, 32768
  %cmp.i.not.i.i = icmp eq i32 %and.i.i.i, 0
  br i1 %cmp.i.not.i.i, label %trace_colo_compare_main.exit, label %if.then.i.i

if.then.i.i:                                      ; preds = %land.lhs.true5.i.i
  %4 = load i8, ptr @message_with_timestamp, align 1
  %tobool7.i.i = trunc i8 %4 to i1
  br i1 %tobool7.i.i, label %if.then8.i.i, label %if.else.i.i

if.then8.i.i:                                     ; preds = %if.then.i.i
  %call9.i.i = call i32 @gettimeofday(ptr noundef nonnull %_now.i.i, ptr noundef null) #16
  %call10.i.i = tail call i32 @qemu_get_thread_id() #16
  %5 = load i64, ptr %_now.i.i, align 8
  %tv_usec.i.i = getelementptr inbounds nuw i8, ptr %_now.i.i, i64 8
  %6 = load i64, ptr %tv_usec.i.i, align 8
  tail call void (ptr, ...) @qemu_log(ptr noundef nonnull @.str.29, i32 noundef %call10.i.i, i64 noundef %5, i64 noundef %6, ptr noundef nonnull @.str.42) #16
  br label %trace_colo_compare_main.exit

if.else.i.i:                                      ; preds = %if.then.i.i
  tail call void (ptr, ...) @qemu_log(ptr noundef nonnull @.str.30, ptr noundef nonnull @.str.42) #16
  br label %trace_colo_compare_main.exit

trace_colo_compare_main.exit:                     ; preds = %if.else, %land.lhs.true5.i.i, %if.then8.i.i, %if.else.i.i
  call void @llvm.lifetime.end.p0(i64 16, ptr nonnull %_now.i.i)
  tail call void @g_queue_push_tail(ptr noundef nonnull %conn, ptr noundef %call4) #16
  tail call fastcc void @colo_compare_inconsistency_notify(ptr noundef %s)
  br label %while.end

while.end:                                        ; preds = %land.rhs, %if.then, %entry, %trace_colo_compare_main.exit
  ret void
}